; Function Attrs: mustprogress uwtable
define dso_local void @_ZN13ArrayResource11handleWriteEP14UNewDataMemoryPj(ptr noundef nonnull readonly align 8 captures(none) dereferenceable(80) %0, ptr noundef %1, ptr noundef %2) unnamed_addr #7 align 2 {
  %4 = getelementptr inbounds nuw i8, ptr %0, i64 64
  %.07.i = load ptr, ptr %4, align 8, !tbaa !74
  %.not8.i = icmp eq ptr %.07.i, null
  br i1 %.not8.i, label %_ZN17ContainerResource11writeAllResEP14UNewDataMemoryPj.exit, label %.lr.ph.i

.lr.ph.i:                                         ; preds = %3, %_ZN9SResource5writeEP14UNewDataMemoryPj.exit.i
  %.09.i = phi ptr [ %.0.i, %_ZN9SResource5writeEP14UNewDataMemoryPj.exit.i ], [ %.07.i, %3 ]
  %5 = getelementptr inbounds nuw i8, ptr %.09.i, i64 9
  %6 = load i8, ptr %5, align 1, !tbaa !17
  %.not.i.i = icmp eq i8 %6, 0
  br i1 %.not.i.i, label %7, label %_ZN9SResource5writeEP14UNewDataMemoryPj.exit.i

7:                                                ; preds = %.lr.ph.i
  %8 = load ptr, ptr %.09.i, align 8, !tbaa !9
  %9 = getelementptr inbounds nuw i8, ptr %8, i64 40
  %10 = load ptr, ptr %9, align 8
  tail call void %10(ptr noundef nonnull align 8 dereferenceable(56) %.09.i, ptr noundef %1, ptr noundef %2)
  %11 = load i32, ptr %2, align 4, !tbaa !7
  %12 = and i32 %11, 3
  %.not.i.i.i = icmp eq i32 %12, 0
  br i1 %.not.i.i.i, label %17, label %13

13:                                               ; preds = %7
  %14 = sub nuw nsw i32 4, %12
  tail call void @udata_writePadding(ptr noundef %1, i32 noundef %14)
  %15 = load i32, ptr %2, align 4, !tbaa !7
  %16 = add i32 %15, %14
  store i32 %16, ptr %2, align 4, !tbaa !7
  br label %17

17:                                               ; preds = %13, %7
  store i8 1, ptr %5, align 1, !tbaa !17
  br label %_ZN9SResource5writeEP14UNewDataMemoryPj.exit.i

_ZN9SResource5writeEP14UNewDataMemoryPj.exit.i:   ; preds = %17, %.lr.ph.i
  %18 = getelementptr inbounds nuw i8, ptr %.09.i, i64 32
  %.0.i = load ptr, ptr %18, align 8, !tbaa !74
  %.not.i = icmp eq ptr %.0.i, null
  br i1 %.not.i, label %_ZN17ContainerResource11writeAllResEP14UNewDataMemoryPj.exit, label %.lr.ph.i, !llvm.loop !95

_ZN17ContainerResource11writeAllResEP14UNewDataMemoryPj.exit: ; preds = %_ZN9SResource5writeEP14UNewDataMemoryPj.exit.i, %3
  %19 = getelementptr inbounds nuw i8, ptr %0, i64 56
  %20 = load i32, ptr %19, align 8, !tbaa !42
  tail call void @udata_write32(ptr noundef %1, i32 noundef %20)
  %21 = load i32, ptr %2, align 4, !tbaa !7
  %22 = add i32 %21, 4
  store i32 %22, ptr %2, align 4, !tbaa !7
  %.06.i = load ptr, ptr %4, align 8, !tbaa !74
  %.not7.i = icmp eq ptr %.06.i, null
  br i1 %.not7.i, label %_ZN17ContainerResource13writeAllRes32EP14UNewDataMemoryPj.exit, label %.lr.ph.i7

.lr.ph.i7:                                        ; preds = %_ZN17ContainerResource11writeAllResEP14UNewDataMemoryPj.exit, %.lr.ph.i7
  %.08.i = phi ptr [ %.0.i8, %.lr.ph.i7 ], [ %.06.i, %_ZN17ContainerResource11writeAllResEP14UNewDataMemoryPj.exit ]
  %23 = getelementptr inbounds nuw i8, ptr %.08.i, i64 12
  %24 = load i32, ptr %23, align 4, !tbaa !20
  tail call void @udata_write32(ptr noundef %1, i32 noundef %24)
  %25 = getelementptr inbounds nuw i8, ptr %.08.i, i64 32
  %.0.i8 = load ptr, ptr %25, align 8, !tbaa !74
  %.not.i9 = icmp eq ptr %.0.i8, null
  br i1 %.not.i9, label %_ZN17ContainerResource13writeAllRes32EP14UNewDataMemoryPj.exit.loopexit, label %.lr.ph.i7, !llvm.loop !96

_ZN17ContainerResource13writeAllRes32EP14UNewDataMemoryPj.exit.loopexit: ; preds = %.lr.ph.i7
  %.pre = load i32, ptr %2, align 4, !tbaa !7
  br label %_ZN17ContainerResource13writeAllRes32EP14UNewDataMemoryPj.exit

_ZN17ContainerResource13writeAllRes32EP14UNewDataMemoryPj.exit: ; preds = %_ZN17ContainerResource13writeAllRes32EP14UNewDataMemoryPj.exit.loopexit, %_ZN17ContainerResource11writeAllResEP14UNewDataMemoryPj.exit
  %26 = phi i32 [ %.pre, %_ZN17ContainerResource13writeAllRes32EP14UNewDataMemoryPj.exit.loopexit ], [ %22, %_ZN17ContainerResource11writeAllResEP14UNewDataMemoryPj.exit ]
  %27 = load i32, ptr %19, align 8, !tbaa !42
  %28 = shl i32 %27, 2
  %29 = add i32 %26, %28
  store i32 %29, ptr %2, align 4, !tbaa !7
  ret void
}